target datalayout = "e-m:e-p270:32:32-p271:32:32-p272:64:64-i64:64-i128:128-f80:128-n8:16:32:64-S128"
target triple = "x86_64-pc-linux-gnu"

%struct._e_addr_resolve = type { i8, i8, i8, i8, i8, i8, i8, i8, i8 }
%struct.hashipv4 = type { i32, i8, [16 x i8], [256 x i8], [19 x i8] }
%struct._async_dns_queue_msg = type { %union.anon.4, i32 }
%union.anon.4 = type { i32, [12 x i8] }
%struct._sync_dns_data = type { %union.anon.5, i32, ptr }
%union.anon.5 = type { i32, [12 x i8] }

@gbl_resolv_flags = global %struct._e_addr_resolve { i8 1, i8 0, i8 0, i8 1, i8 0, i8 1, i8 0, i8 0, i8 1 }, align 1
@resolve_synchronously = internal global i8 0, align 1
@addr_resolv_scope = internal global ptr null, align 8
@ipv4_hash_table = internal global ptr null, align 8
@name_resolve_concurrency = internal global i32 500, align 4
@async_dns_initialized = internal global i8 0, align 1
@ghba_chan = internal global ptr null, align 8
@async_dns_queue_head = internal global ptr null, align 8

; Function Attrs: null_pointer_is_valid sspstrong uwtable
define internal void @sync_lookup_ip4(i32 noundef %0) #3 {
  %2 = alloca i32, align 4
  %3 = alloca i8, align 1
  %4 = alloca ptr, align 8
  %5 = alloca i32, align 4
  %6 = alloca i64, align 8
  %7 = alloca i64, align 8
  %8 = alloca ptr, align 8
  %9 = alloca ptr, align 8
  store i32 %0, ptr %2, align 4
  call void @llvm.lifetime.start.p0(i64 1, ptr %3) #16
  store i8 0, ptr %3, align 1
  call void @llvm.lifetime.start.p0(i64 8, ptr %4) #16
  %10 = load i8, ptr @async_dns_initialized, align 1, !range !8, !noundef !9
  %11 = trunc i8 %10 to i1
  br i1 %11, label %13, label %12

12:                                               ; preds = %1
  store i32 1, ptr %5, align 4
  br label %52

13:                                               ; preds = %1
  call void @llvm.lifetime.start.p0(i64 8, ptr %6) #16
  store i64 1, ptr %6, align 8
  call void @llvm.lifetime.start.p0(i64 8, ptr %7) #16
  store i64 32, ptr %7, align 8
  call void @llvm.lifetime.start.p0(i64 8, ptr %8) #16
  %14 = load i64, ptr %7, align 8
  %15 = icmp eq i64 %14, 1
  br i1 %15, label %16, label %19

16:                                               ; preds = %13
  %17 = load i64, ptr %6, align 8
  %18 = call noalias ptr @g_malloc(i64 noundef %17) #21
  store ptr %18, ptr %8, align 8
  br label %40

19:                                               ; preds = %13
  %20 = load i64, ptr %6, align 8
  %21 = call i1 @llvm.is.constant.i64(i64 %20)
  br i1 %21, label %22, label %35

22:                                               ; preds = %19
  %23 = load i64, ptr %7, align 8
  %24 = icmp eq i64 %23, 0
  br i1 %24, label %30, label %25

25:                                               ; preds = %22
  %26 = load i64, ptr %6, align 8
  %27 = load i64, ptr %7, align 8
  %28 = udiv i64 -1, %27
  %29 = icmp ule i64 %26, %28
  br i1 %29, label %30, label %35

30:                                               ; preds = %25, %22
  %31 = load i64, ptr %6, align 8
  %32 = load i64, ptr %7, align 8
  %33 = mul i64 %31, %32
  %34 = call noalias ptr @g_malloc(i64 noundef %33) #21
  store ptr %34, ptr %8, align 8
  br label %39

35:                                               ; preds = %25, %19
  %36 = load i64, ptr %6, align 8
  %37 = load i64, ptr %7, align 8
  %38 = call noalias ptr @g_malloc_n(i64 noundef %36, i64 noundef %37) #22
  store ptr %38, ptr %8, align 8
  br label %39

39:                                               ; preds = %35, %30
  br label %40

40:                                               ; preds = %39, %16
  %41 = load ptr, ptr %8, align 8
  store ptr %41, ptr %9, align 8
  call void @llvm.lifetime.end.p0(i64 8, ptr %8) #16
  call void @llvm.lifetime.end.p0(i64 8, ptr %7) #16
  call void @llvm.lifetime.end.p0(i64 8, ptr %6) #16
  %42 = load ptr, ptr %9, align 8
  store ptr %42, ptr %4, align 8
  %43 = load ptr, ptr %4, align 8
  %44 = getelementptr inbounds nuw %struct._sync_dns_data, ptr %43, i32 0, i32 1
  store i32 2, ptr %44, align 8
  %45 = load i32, ptr %2, align 4
  %46 = load ptr, ptr %4, align 8
  %47 = getelementptr inbounds nuw %struct._sync_dns_data, ptr %46, i32 0, i32 0
  store i32 %45, ptr %47, align 8
  %48 = load ptr, ptr %4, align 8
  %49 = getelementptr inbounds nuw %struct._sync_dns_data, ptr %48, i32 0, i32 2
  store ptr %3, ptr %49, align 8
  %50 = load ptr, ptr @ghba_chan, align 8
  %51 = load ptr, ptr %4, align 8
  call void @ares_gethostbyaddr(ptr noundef %50, ptr noundef %2, i32 noundef 4, i32 noundef 2, ptr noundef @c_ares_ghba_sync_cb, ptr noundef %51)
  call void @wait_for_sync_resolv(ptr noundef %3)
  store i32 0, ptr %5, align 4
  br label %52

52:                                               ; preds = %40, %12
  call void @llvm.lifetime.end.p0(i64 8, ptr %4) #16
  call void @llvm.lifetime.end.p0(i64 1, ptr %3) #16
  %53 = load i32, ptr %5, align 4
  switch i32 %53, label %55 [
    i32 0, label %54
    i32 1, label %54
  ]

54:                                               ; preds = %52, %52
  ret void

55:                                               ; preds = %52
  unreachable
}

; Function Attrs: null_pointer_is_valid sspstrong uwtable
define ptr @new_ipv4(i32 noundef %0) #3 {
  %2 = alloca i32, align 4
  %3 = alloca ptr, align 8
  store i32 %0, ptr %2, align 4
  call void @llvm.lifetime.start.p0(i64 8, ptr %3) #16
  %4 = load ptr, ptr @addr_resolv_scope, align 8
  %5 = call noalias ptr @wmem_alloc(ptr noundef %4, i64 noundef 296) #19
  store ptr %5, ptr %3, align 8
  %6 = load i32, ptr %2, align 4
  %7 = load ptr, ptr %3, align 8
  %8 = getelementptr inbounds nuw %struct.hashipv4, ptr %7, i32 0, i32 0
  store i32 %6, ptr %8, align 4
  %9 = load ptr, ptr %3, align 8
  %10 = getelementptr inbounds nuw %struct.hashipv4, ptr %9, i32 0, i32 1
  store i8 0, ptr %10, align 4
  %11 = load ptr, ptr %3, align 8
  %12 = getelementptr inbounds nuw %struct.hashipv4, ptr %11, i32 0, i32 3
  %13 = getelementptr [256 x i8], ptr %12, i64 0, i64 0
  store i8 0, ptr %13, align 1
  %14 = load ptr, ptr %3, align 8
  %15 = getelementptr inbounds nuw %struct.hashipv4, ptr %14, i32 0, i32 2
  %16 = getelementptr inbounds [16 x i8], ptr %15, i64 0, i64 0
  call void @ip_addr_to_str_buf(ptr noundef %2, ptr noundef %16, i32 noundef 16)
  %17 = load ptr, ptr %3, align 8
  call void @llvm.lifetime.end.p0(i64 8, ptr %3) #16
  ret ptr %17
}

; Function Attrs: null_pointer_is_valid sspstrong uwtable
define internal ptr @host_lookup(i32 noundef %0) #3 {
  %2 = alloca ptr, align 8
  %3 = alloca i32, align 4
  %4 = alloca ptr, align 8
  %5 = alloca i32, align 4
  %6 = alloca ptr, align 8
  store i32 %0, ptr %3, align 4
  call void @llvm.lifetime.start.p0(i64 8, ptr %4) #16
  %7 = load ptr, ptr @ipv4_hash_table, align 8
  %8 = load i32, ptr %3, align 4
  %9 = zext i32 %8 to i64
  %10 = inttoptr i64 %9 to ptr
  %11 = call ptr @wmem_map_lookup(ptr noundef %7, ptr noundef %10)
  store volatile ptr %11, ptr %4, align 8
  %12 = load volatile ptr, ptr %4, align 8
  %13 = icmp eq ptr %12, null
  br i1 %13, label %14, label %26

14:                                               ; preds = %1
  %15 = load i32, ptr %3, align 4
  %16 = call ptr @new_ipv4(i32 noundef %15)
  store volatile ptr %16, ptr %4, align 8
  %17 = load i32, ptr %3, align 4
  %18 = load volatile ptr, ptr %4, align 8
  %19 = call zeroext i1 @fill_dummy_ip4(i32 noundef %17, ptr noundef %18)
  %20 = load ptr, ptr @ipv4_hash_table, align 8
  %21 = load i32, ptr %3, align 4
  %22 = zext i32 %21 to i64
  %23 = inttoptr i64 %22 to ptr
  %24 = load volatile ptr, ptr %4, align 8
  %25 = call ptr @wmem_map_insert(ptr noundef %20, ptr noundef %23, ptr noundef %24)
  br label %36

26:                                               ; preds = %1
  %27 = load volatile ptr, ptr %4, align 8
  %28 = getelementptr inbounds nuw %struct.hashipv4, ptr %27, i32 0, i32 1
  %29 = load i8, ptr %28, align 4
  %30 = zext i8 %29 to i32
  %31 = and i32 %30, 3
  %32 = icmp ne i32 %31, 0
  br i1 %32, label %33, label %35

33:                                               ; preds = %26
  %34 = load volatile ptr, ptr %4, align 8
  store ptr %34, ptr %2, align 8
  store i32 1, ptr %5, align 4
  br label %75

35:                                               ; preds = %26
  br label %36

36:                                               ; preds = %35, %14
  %37 = load i8, ptr getelementptr inbounds nuw (%struct._e_addr_resolve, ptr @gbl_resolv_flags, i32 0, i32 1), align 1, !range !8, !noundef !9
  %38 = trunc i8 %37 to i1
  br i1 %38, label %41, label %39

39:                                               ; preds = %36
  %40 = load volatile ptr, ptr %4, align 8
  store ptr %40, ptr %2, align 8
  store i32 1, ptr %5, align 4
  br label %75

41:                                               ; preds = %36
  %42 = load i8, ptr getelementptr inbounds nuw (%struct._e_addr_resolve, ptr @gbl_resolv_flags, i32 0, i32 5), align 1, !range !8, !noundef !9
  %43 = trunc i8 %42 to i1
  br i1 %43, label %44, label %73

44:                                               ; preds = %41
  %45 = load volatile ptr, ptr %4, align 8
  %46 = getelementptr inbounds nuw %struct.hashipv4, ptr %45, i32 0, i32 1
  %47 = load i8, ptr %46, align 4
  %48 = zext i8 %47 to i32
  %49 = or i32 %48, 1
  %50 = trunc i32 %49 to i8
  store i8 %50, ptr %46, align 4
  %51 = load i8, ptr @async_dns_initialized, align 1, !range !8, !noundef !9
  %52 = trunc i8 %51 to i1
  br i1 %52, label %53, label %72

53:                                               ; preds = %44
  %54 = load i8, ptr @resolve_synchronously, align 1, !range !8, !noundef !9
  %55 = trunc i8 %54 to i1
  br i1 %55, label %59, label %56

56:                                               ; preds = %53
  %57 = load i32, ptr @name_resolve_concurrency, align 4
  %58 = icmp eq i32 %57, 0
  br i1 %58, label %59, label %61

59:                                               ; preds = %56, %53
  %60 = load i32, ptr %3, align 4
  call void @sync_lookup_ip4(i32 noundef %60)
  br label %71

61:                                               ; preds = %56
  call void @llvm.lifetime.start.p0(i64 8, ptr %6) #16
  %62 = load ptr, ptr @addr_resolv_scope, align 8
  %63 = call noalias ptr @wmem_alloc(ptr noundef %62, i64 noundef 20) #19
  store ptr %63, ptr %6, align 8
  %64 = load ptr, ptr %6, align 8
  %65 = getelementptr inbounds nuw %struct._async_dns_queue_msg, ptr %64, i32 0, i32 1
  store i32 2, ptr %65, align 4
  %66 = load i32, ptr %3, align 4
  %67 = load ptr, ptr %6, align 8
  %68 = getelementptr inbounds nuw %struct._async_dns_queue_msg, ptr %67, i32 0, i32 0
  store i32 %66, ptr %68, align 4
  %69 = load ptr, ptr @async_dns_queue_head, align 8
  %70 = load ptr, ptr %6, align 8
  call void @wmem_list_append(ptr noundef %69, ptr noundef %70)
  call void @llvm.lifetime.end.p0(i64 8, ptr %6) #16
  br label %71

71:                                               ; preds = %61, %59
  br label %72

72:                                               ; preds = %71, %44
  br label %73

73:                                               ; preds = %72, %41
  %74 = load volatile ptr, ptr %4, align 8
  store ptr %74, ptr %2, align 8
  store i32 1, ptr %5, align 4
  br label %75

75:                                               ; preds = %73, %39, %33
  call void @llvm.lifetime.end.p0(i64 8, ptr %4) #16
  %76 = load ptr, ptr %2, align 8
  ret ptr %76
}