; Function Attrs: null_pointer_is_valid sspstrong uwtable
define internal fastcc ptr @host_lookup(i32 noundef %0) unnamed_addr #3 {
  %2 = alloca i32, align 4
  %3 = alloca i8, align 1
  %4 = alloca i32, align 4
  %5 = alloca ptr, align 8
  call void @llvm.lifetime.start.p0(i64 8, ptr nonnull %5)
  %6 = load ptr, ptr @ipv4_hash_table, align 8
  %7 = zext i32 %0 to i64
  %8 = inttoptr i64 %7 to ptr
  %9 = tail call ptr @wmem_map_lookup(ptr noundef %6, ptr noundef %8)
  store volatile ptr %9, ptr %5, align 8
  %.0..0..0..0.4 = load volatile ptr, ptr %5, align 8
  %10 = icmp eq ptr %.0..0..0..0.4, null
  br i1 %10, label %11, label %20

11:                                               ; preds = %1
  call void @llvm.lifetime.start.p0(i64 4, ptr nonnull %4)
  store i32 %0, ptr %4, align 4
  %12 = load ptr, ptr @addr_resolv_scope, align 8
  %13 = tail call noalias dereferenceable_or_null(296) ptr @wmem_alloc(ptr noundef %12, i64 noundef 296) #26
  store i32 %0, ptr %13, align 4
  %14 = getelementptr inbounds nuw i8, ptr %13, i64 4
  store i8 0, ptr %14, align 4
  %15 = getelementptr inbounds nuw i8, ptr %13, i64 21
  store i8 0, ptr %15, align 1
  %16 = getelementptr inbounds nuw i8, ptr %13, i64 5
  call void @ip_addr_to_str_buf(ptr noundef nonnull %4, ptr noundef nonnull %16, i32 noundef 16)
  call void @llvm.lifetime.end.p0(i64 4, ptr nonnull %4)
  store volatile ptr %13, ptr %5, align 8
  %.0..0..0..0.5 = load volatile ptr, ptr %5, align 8
  %17 = call zeroext i1 @fill_dummy_ip4(i32 noundef %0, ptr noundef %.0..0..0..0.5)
  %18 = load ptr, ptr @ipv4_hash_table, align 8
  %.0..0..0..0.6 = load volatile ptr, ptr %5, align 8
  %19 = call ptr @wmem_map_insert(ptr noundef %18, ptr noundef %8, ptr noundef %.0..0..0..0.6)
  br label %24

20:                                               ; preds = %1
  %.0..0..0..0.7 = load volatile ptr, ptr %5, align 8
  %21 = getelementptr inbounds nuw i8, ptr %.0..0..0..0.7, i64 4
  %22 = load i8, ptr %21, align 4
  %23 = and i8 %22, 3
  %.not = icmp eq i8 %23, 0
  br i1 %.not, label %24, label %48

24:                                               ; preds = %20, %11
  %25 = load i8, ptr getelementptr inbounds nuw (i8, ptr @gbl_resolv_flags, i64 1), align 1, !range !16, !noundef !17
  %26 = trunc nuw i8 %25 to i1
  br i1 %26, label %27, label %48

27:                                               ; preds = %24
  %28 = load i8, ptr getelementptr inbounds nuw (i8, ptr @gbl_resolv_flags, i64 5), align 1, !range !16, !noundef !17
  %29 = trunc nuw i8 %28 to i1
  br i1 %29, label %30, label %48

30:                                               ; preds = %27
  %.0..0..0..0.10 = load volatile ptr, ptr %5, align 8
  %31 = getelementptr inbounds nuw i8, ptr %.0..0..0..0.10, i64 4
  %32 = load i8, ptr %31, align 4
  %33 = or i8 %32, 1
  store i8 %33, ptr %31, align 4
  %.b18 = load i1, ptr @async_dns_initialized, align 1
  br i1 %.b18, label %34, label %48

34:                                               ; preds = %30
  %35 = load i8, ptr @resolve_synchronously, align 1, !range !16, !noundef !17
  %36 = trunc nuw i8 %35 to i1
  %37 = load i32, ptr @name_resolve_concurrency, align 4
  %38 = icmp eq i32 %37, 0
  %or.cond = select i1 %36, i1 true, i1 %38
  br i1 %or.cond, label %sync_lookup_ip4.exit, label %43

sync_lookup_ip4.exit:                             ; preds = %34
  call void @llvm.lifetime.start.p0(i64 4, ptr nonnull %2)
  store i32 %0, ptr %2, align 4
  call void @llvm.lifetime.start.p0(i64 1, ptr nonnull %3) #24
  store i8 0, ptr %3, align 1
  %39 = call noalias dereferenceable_or_null(32) ptr @g_malloc(i64 noundef 32) #29
  %40 = getelementptr inbounds nuw i8, ptr %39, i64 16
  store i32 2, ptr %40, align 8
  store i32 %0, ptr %39, align 8
  %41 = getelementptr inbounds nuw i8, ptr %39, i64 24
  store ptr %3, ptr %41, align 8
  %42 = load ptr, ptr @ghba_chan, align 8
  call void @ares_gethostbyaddr(ptr noundef %42, ptr noundef nonnull %2, i32 noundef 4, i32 noundef 2, ptr noundef nonnull @c_ares_ghba_sync_cb, ptr noundef %39)
  call fastcc void @wait_for_sync_resolv(ptr noundef nonnull %3)
  call void @llvm.lifetime.end.p0(i64 1, ptr nonnull %3) #24
  call void @llvm.lifetime.end.p0(i64 4, ptr nonnull %2)
  br label %48

43:                                               ; preds = %34
  %44 = load ptr, ptr @addr_resolv_scope, align 8
  %45 = call noalias dereferenceable_or_null(20) ptr @wmem_alloc(ptr noundef %44, i64 noundef 20) #26
  %46 = getelementptr inbounds nuw i8, ptr %45, i64 16
  store i32 2, ptr %46, align 4
  store i32 %0, ptr %45, align 4
  %47 = load ptr, ptr @async_dns_queue_head, align 8
  call void @wmem_list_append(ptr noundef %47, ptr noundef %45)
  br label %48

48:                                               ; preds = %27, %sync_lookup_ip4.exit, %43, %30, %24, %20
  %.0..0..0..0 = load volatile ptr, ptr %5, align 8
  call void @llvm.lifetime.end.p0(i64 8, ptr nonnull %5)
  ret ptr %.0..0..0..0
}